target datalayout = "e-m:e-p270:32:32-p271:32:32-p272:64:64-i64:64-i128:128-f80:128-n8:16:32:64-S128"
target triple = "x86_64-pc-linux-gnu"

%struct.Mio_Cell_t_ = type { ptr, i32, float, i64, [6 x float] }

@s_Truths6 = internal global [6 x i64] [i64 -6148914691236517206, i64 -3689348814741910324, i64 -1085102592571150096, i64 -71777214294589696, i64 -281470681808896, i64 -4294967296], align 16

; Function Attrs: inlinehint nounwind uwtable
define internal i64 @Abc_Tt6SwapAdjacent(i64 noundef %0, i32 noundef %1) #2 {
  %3 = alloca i64, align 8
  %4 = alloca i32, align 4
  store i64 %0, ptr %3, align 8, !tbaa !8
  store i32 %1, ptr %4, align 4, !tbaa !12
  %5 = load i64, ptr %3, align 8, !tbaa !8
  %6 = load i32, ptr %4, align 4, !tbaa !12
  %7 = sext i32 %6 to i64
  %8 = getelementptr inbounds [5 x [3 x i64]], ptr @s_PMasks, i64 0, i64 %7
  %9 = getelementptr inbounds [3 x i64], ptr %8, i64 0, i64 0
  %10 = load i64, ptr %9, align 8, !tbaa !8
  %11 = and i64 %5, %10
  %12 = load i64, ptr %3, align 8, !tbaa !8
  %13 = load i32, ptr %4, align 4, !tbaa !12
  %14 = sext i32 %13 to i64
  %15 = getelementptr inbounds [5 x [3 x i64]], ptr @s_PMasks, i64 0, i64 %14
  %16 = getelementptr inbounds [3 x i64], ptr %15, i64 0, i64 1
  %17 = load i64, ptr %16, align 8, !tbaa !8
  %18 = and i64 %12, %17
  %19 = load i32, ptr %4, align 4, !tbaa !12
  %20 = shl i32 1, %19
  %21 = zext i32 %20 to i64
  %22 = shl i64 %18, %21
  %23 = or i64 %11, %22
  %24 = load i64, ptr %3, align 8, !tbaa !8
  %25 = load i32, ptr %4, align 4, !tbaa !12
  %26 = sext i32 %25 to i64
  %27 = getelementptr inbounds [5 x [3 x i64]], ptr @s_PMasks, i64 0, i64 %26
  %28 = getelementptr inbounds [3 x i64], ptr %27, i64 0, i64 2
  %29 = load i64, ptr %28, align 8, !tbaa !8
  %30 = and i64 %24, %29
  %31 = load i32, ptr %4, align 4, !tbaa !12
  %32 = shl i32 1, %31
  %33 = zext i32 %32 to i64
  %34 = lshr i64 %30, %33
  %35 = or i64 %23, %34
  ret i64 %35
}

; Function Attrs: inlinehint nounwind uwtable
define internal i32 @Abc_LitNot(i32 noundef %0) #2 {
  %2 = alloca i32, align 4
  store i32 %0, ptr %2, align 4, !tbaa !12
  %3 = load i32, ptr %2, align 4, !tbaa !12
  %4 = xor i32 %3, 1
  ret i32 %4
}

; Function Attrs: inlinehint nounwind uwtable
define internal i64 @Abc_Tt6Flip(i64 noundef %0, i32 noundef %1) #2 {
  %3 = alloca i64, align 8
  %4 = alloca i32, align 4
  store i64 %0, ptr %3, align 8, !tbaa !8
  store i32 %1, ptr %4, align 4, !tbaa !12
  %5 = load i64, ptr %3, align 8, !tbaa !8
  %6 = load i32, ptr %4, align 4, !tbaa !12
  %7 = shl i32 1, %6
  %8 = zext i32 %7 to i64
  %9 = shl i64 %5, %8
  %10 = load i32, ptr %4, align 4, !tbaa !12
  %11 = sext i32 %10 to i64
  %12 = getelementptr inbounds [6 x i64], ptr @s_Truths6, i64 0, i64 %11
  %13 = load i64, ptr %12, align 8, !tbaa !8
  %14 = and i64 %9, %13
  %15 = load i64, ptr %3, align 8, !tbaa !8
  %16 = load i32, ptr %4, align 4, !tbaa !12
  %17 = sext i32 %16 to i64
  %18 = getelementptr inbounds [6 x i64], ptr @s_Truths6, i64 0, i64 %17
  %19 = load i64, ptr %18, align 8, !tbaa !8
  %20 = and i64 %15, %19
  %21 = load i32, ptr %4, align 4, !tbaa !12
  %22 = shl i32 1, %21
  %23 = zext i32 %22 to i64
  %24 = lshr i64 %20, %23
  %25 = or i64 %14, %24
  store i64 %25, ptr %3, align 8, !tbaa !8
  ret i64 %25
}

; Function Attrs: inlinehint nounwind uwtable
define internal i32 @Abc_Var2Lit(i32 noundef %0, i32 noundef %1) #2 {
  %3 = alloca i32, align 4
  %4 = alloca i32, align 4
  store i32 %0, ptr %3, align 4, !tbaa !12
  store i32 %1, ptr %4, align 4, !tbaa !12
  %5 = load i32, ptr %3, align 4, !tbaa !12
  %6 = load i32, ptr %3, align 4, !tbaa !12
  %7 = add nsw i32 %5, %6
  %8 = load i32, ptr %4, align 4, !tbaa !12
  %9 = add nsw i32 %7, %8
  ret i32 %9
}

; Function Attrs: nounwind uwtable
define void @Pf_StoCreateGate(ptr noundef %0, ptr noundef %1, ptr noundef %2, ptr noundef %3, ptr noundef %4) #0 {
  %6 = alloca ptr, align 8
  %7 = alloca ptr, align 8
  %8 = alloca ptr, align 8
  %9 = alloca ptr, align 8
  %10 = alloca ptr, align 8
  %11 = alloca [6 x i32], align 16
  %12 = alloca ptr, align 8
  %13 = alloca ptr, align 8
  %14 = alloca i32, align 4
  %15 = alloca i32, align 4
  %16 = alloca i64, align 8
  %17 = alloca i64, align 8
  %18 = alloca i64, align 8
  %19 = alloca i32, align 4
  %20 = alloca i32, align 4
  %21 = alloca i32, align 4
  %22 = alloca i32, align 4
  store ptr %0, ptr %6, align 8, !tbaa !3
  store ptr %1, ptr %7, align 8, !tbaa !51
  store ptr %2, ptr %8, align 8, !tbaa !52
  store ptr %3, ptr %9, align 8, !tbaa !52
  store ptr %4, ptr %10, align 8, !tbaa !10
  call void @llvm.lifetime.start.p0(i64 24, ptr %11) #13
  call void @llvm.lifetime.start.p0(i64 8, ptr %12) #13
  call void @llvm.lifetime.start.p0(i64 8, ptr %13) #13
  call void @llvm.lifetime.start.p0(i64 4, ptr %14) #13
  %23 = load ptr, ptr %10, align 8, !tbaa !10
  %24 = load ptr, ptr %7, align 8, !tbaa !51
  %25 = getelementptr inbounds nuw %struct.Mio_Cell_t_, ptr %24, i32 0, i32 1
  %26 = load i32, ptr %25, align 8
  %27 = lshr i32 %26, 28
  %28 = zext i32 %27 to i64
  %29 = getelementptr inbounds nuw i32, ptr %23, i64 %28
  %30 = load i32, ptr %29, align 4, !tbaa !12
  store i32 %30, ptr %14, align 4, !tbaa !12
  call void @llvm.lifetime.start.p0(i64 4, ptr %15) #13
  %31 = load ptr, ptr %7, align 8, !tbaa !51
  %32 = getelementptr inbounds nuw %struct.Mio_Cell_t_, ptr %31, i32 0, i32 1
  %33 = load i32, ptr %32, align 8
  %34 = lshr i32 %33, 28
  %35 = shl i32 1, %34
  store i32 %35, ptr %15, align 4, !tbaa !12
  call void @llvm.lifetime.start.p0(i64 8, ptr %16) #13
  call void @llvm.lifetime.start.p0(i64 8, ptr %17) #13
  call void @llvm.lifetime.start.p0(i64 8, ptr %18) #13
  call void @llvm.lifetime.start.p0(i64 4, ptr %19) #13
  call void @llvm.lifetime.start.p0(i64 4, ptr %20) #13
  call void @llvm.lifetime.start.p0(i64 4, ptr %21) #13
  store i32 0, ptr %19, align 4, !tbaa !12
  br label %36

36:                                               ; preds = %49, %5
  %37 = load i32, ptr %19, align 4, !tbaa !12
  %38 = load ptr, ptr %7, align 8, !tbaa !51
  %39 = getelementptr inbounds nuw %struct.Mio_Cell_t_, ptr %38, i32 0, i32 1
  %40 = load i32, ptr %39, align 8
  %41 = lshr i32 %40, 28
  %42 = icmp slt i32 %37, %41
  br i1 %42, label %43, label %52

43:                                               ; preds = %36
  %44 = load i32, ptr %19, align 4, !tbaa !12
  %45 = call i32 @Abc_Var2Lit(i32 noundef %44, i32 noundef 0)
  %46 = load i32, ptr %19, align 4, !tbaa !12
  %47 = sext i32 %46 to i64
  %48 = getelementptr inbounds [6 x i32], ptr %11, i64 0, i64 %47
  store i32 %45, ptr %48, align 4, !tbaa !12
  br label %49

49:                                               ; preds = %43
  %50 = load i32, ptr %19, align 4, !tbaa !12
  %51 = add nsw i32 %50, 1
  store i32 %51, ptr %19, align 4, !tbaa !12
  br label %36, !llvm.loop !54

52:                                               ; preds = %36
  %53 = load ptr, ptr %7, align 8, !tbaa !51
  %54 = getelementptr inbounds nuw %struct.Mio_Cell_t_, ptr %53, i32 0, i32 3
  %55 = load i64, ptr %54, align 8, !tbaa !55
  store i64 %55, ptr %17, align 8, !tbaa !8
  store i64 %55, ptr %16, align 8, !tbaa !8
  store i32 0, ptr %20, align 4, !tbaa !12
  br label %56

56:                                               ; preds = %153, %52
  %57 = load i32, ptr %20, align 4, !tbaa !12
  %58 = load i32, ptr %14, align 4, !tbaa !12
  %59 = icmp slt i32 %57, %58
  br i1 %59, label %60, label %156

60:                                               ; preds = %56
  %61 = load i64, ptr %16, align 8, !tbaa !8
  store i64 %61, ptr %18, align 8, !tbaa !8
  store i32 0, ptr %21, align 4, !tbaa !12
  br label %62

62:                                               ; preds = %111, %60
  %63 = load i32, ptr %21, align 4, !tbaa !12
  %64 = load i32, ptr %15, align 4, !tbaa !12
  %65 = icmp slt i32 %63, %64
  br i1 %65, label %66, label %114

66:                                               ; preds = %62
  %67 = load ptr, ptr %6, align 8, !tbaa !3
  %68 = load i64, ptr %16, align 8, !tbaa !8
  %69 = getelementptr inbounds [6 x i32], ptr %11, i64 0, i64 0
  %70 = load ptr, ptr %7, align 8, !tbaa !51
  %71 = getelementptr inbounds nuw %struct.Mio_Cell_t_, ptr %70, i32 0, i32 1
  %72 = load i32, ptr %71, align 8
  %73 = lshr i32 %72, 28
  %74 = load ptr, ptr %7, align 8, !tbaa !51
  %75 = getelementptr inbounds nuw %struct.Mio_Cell_t_, ptr %74, i32 0, i32 1
  %76 = load i32, ptr %75, align 8
  %77 = and i32 %76, 268435455
  call void @Pf_StoCreateGateAdd(ptr noundef %67, i64 noundef %68, ptr noundef %69, i32 noundef %73, i32 noundef %77)
  %78 = load i64, ptr %16, align 8, !tbaa !8
  %79 = load ptr, ptr %8, align 8, !tbaa !52
  %80 = load ptr, ptr %7, align 8, !tbaa !51
  %81 = getelementptr inbounds nuw %struct.Mio_Cell_t_, ptr %80, i32 0, i32 1
  %82 = load i32, ptr %81, align 8
  %83 = lshr i32 %82, 28
  %84 = zext i32 %83 to i64
  %85 = getelementptr inbounds nuw ptr, ptr %79, i64 %84
  %86 = load ptr, ptr %85, align 8, !tbaa !10
  %87 = load i32, ptr %21, align 4, !tbaa !12
  %88 = sext i32 %87 to i64
  %89 = getelementptr inbounds i32, ptr %86, i64 %88
  %90 = load i32, ptr %89, align 4, !tbaa !12
  %91 = call i64 @Abc_Tt6Flip(i64 noundef %78, i32 noundef %90)
  store i64 %91, ptr %16, align 8, !tbaa !8
  %92 = getelementptr inbounds [6 x i32], ptr %11, i64 0, i64 0
  %93 = load ptr, ptr %8, align 8, !tbaa !52
  %94 = load ptr, ptr %7, align 8, !tbaa !51
  %95 = getelementptr inbounds nuw %struct.Mio_Cell_t_, ptr %94, i32 0, i32 1
  %96 = load i32, ptr %95, align 8
  %97 = lshr i32 %96, 28
  %98 = zext i32 %97 to i64
  %99 = getelementptr inbounds nuw ptr, ptr %93, i64 %98
  %100 = load ptr, ptr %99, align 8, !tbaa !10
  %101 = load i32, ptr %21, align 4, !tbaa !12
  %102 = sext i32 %101 to i64
  %103 = getelementptr inbounds i32, ptr %100, i64 %102
  %104 = load i32, ptr %103, align 4, !tbaa !12
  %105 = sext i32 %104 to i64
  %106 = getelementptr inbounds i32, ptr %92, i64 %105
  store ptr %106, ptr %12, align 8, !tbaa !10
  %107 = load ptr, ptr %12, align 8, !tbaa !10
  %108 = load i32, ptr %107, align 4, !tbaa !12
  %109 = call i32 @Abc_LitNot(i32 noundef %108)
  %110 = load ptr, ptr %12, align 8, !tbaa !10
  store i32 %109, ptr %110, align 4, !tbaa !12
  br label %111

111:                                              ; preds = %66
  %112 = load i32, ptr %21, align 4, !tbaa !12
  %113 = add nsw i32 %112, 1
  store i32 %113, ptr %21, align 4, !tbaa !12
  br label %62, !llvm.loop !58

114:                                              ; preds = %62
  %115 = load i64, ptr %16, align 8, !tbaa !8
  %116 = load ptr, ptr %9, align 8, !tbaa !52
  %117 = load ptr, ptr %7, align 8, !tbaa !51
  %118 = getelementptr inbounds nuw %struct.Mio_Cell_t_, ptr %117, i32 0, i32 1
  %119 = load i32, ptr %118, align 8
  %120 = lshr i32 %119, 28
  %121 = zext i32 %120 to i64
  %122 = getelementptr inbounds nuw ptr, ptr %116, i64 %121
  %123 = load ptr, ptr %122, align 8, !tbaa !10
  %124 = load i32, ptr %20, align 4, !tbaa !12
  %125 = sext i32 %124 to i64
  %126 = getelementptr inbounds i32, ptr %123, i64 %125
  %127 = load i32, ptr %126, align 4, !tbaa !12
  %128 = call i64 @Abc_Tt6SwapAdjacent(i64 noundef %115, i32 noundef %127)
  store i64 %128, ptr %16, align 8, !tbaa !8
  %129 = getelementptr inbounds [6 x i32], ptr %11, i64 0, i64 0
  %130 = load ptr, ptr %9, align 8, !tbaa !52
  %131 = load ptr, ptr %7, align 8, !tbaa !51
  %132 = getelementptr inbounds nuw %struct.Mio_Cell_t_, ptr %131, i32 0, i32 1
  %133 = load i32, ptr %132, align 8
  %134 = lshr i32 %133, 28
  %135 = zext i32 %134 to i64
  %136 = getelementptr inbounds nuw ptr, ptr %130, i64 %135
  %137 = load ptr, ptr %136, align 8, !tbaa !10
  %138 = load i32, ptr %20, align 4, !tbaa !12
  %139 = sext i32 %138 to i64
  %140 = getelementptr inbounds i32, ptr %137, i64 %139
  %141 = load i32, ptr %140, align 4, !tbaa !12
  %142 = sext i32 %141 to i64
  %143 = getelementptr inbounds i32, ptr %129, i64 %142
  store ptr %143, ptr %12, align 8, !tbaa !10
  %144 = load ptr, ptr %12, align 8, !tbaa !10
  %145 = getelementptr inbounds i32, ptr %144, i64 1
  store ptr %145, ptr %13, align 8, !tbaa !10
  call void @llvm.lifetime.start.p0(i64 4, ptr %22) #13
  %146 = load ptr, ptr %12, align 8, !tbaa !10
  %147 = load i32, ptr %146, align 4, !tbaa !12
  store i32 %147, ptr %22, align 4, !tbaa !12
  %148 = load ptr, ptr %13, align 8, !tbaa !10
  %149 = load i32, ptr %148, align 4, !tbaa !12
  %150 = load ptr, ptr %12, align 8, !tbaa !10
  store i32 %149, ptr %150, align 4, !tbaa !12
  %151 = load i32, ptr %22, align 4, !tbaa !12
  %152 = load ptr, ptr %13, align 8, !tbaa !10
  store i32 %151, ptr %152, align 4, !tbaa !12
  call void @llvm.lifetime.end.p0(i64 4, ptr %22) #13
  br label %153

153:                                              ; preds = %114
  %154 = load i32, ptr %20, align 4, !tbaa !12
  %155 = add nsw i32 %154, 1
  store i32 %155, ptr %20, align 4, !tbaa !12
  br label %56, !llvm.loop !59

156:                                              ; preds = %56
  call void @llvm.lifetime.end.p0(i64 4, ptr %21) #13
  call void @llvm.lifetime.end.p0(i64 4, ptr %20) #13
  call void @llvm.lifetime.end.p0(i64 4, ptr %19) #13
  call void @llvm.lifetime.end.p0(i64 8, ptr %18) #13
  call void @llvm.lifetime.end.p0(i64 8, ptr %17) #13
  call void @llvm.lifetime.end.p0(i64 8, ptr %16) #13
  call void @llvm.lifetime.end.p0(i64 4, ptr %15) #13
  call void @llvm.lifetime.end.p0(i64 4, ptr %14) #13
  call void @llvm.lifetime.end.p0(i64 8, ptr %13) #13
  call void @llvm.lifetime.end.p0(i64 8, ptr %12) #13
  call void @llvm.lifetime.end.p0(i64 24, ptr %11) #13
  ret void
}