; Function Attrs: nounwind uwtable
define void @Pf_StoCreateGate(ptr noundef readonly captures(none) %0, ptr noundef readonly captures(none) %1, ptr noundef readonly captures(none) %2, ptr noundef readonly captures(none) %3, ptr noundef readonly captures(none) %4) local_unnamed_addr #0 {
  %6 = alloca [6 x i32], align 16
  call void @llvm.lifetime.start.p0(i64 24, ptr nonnull %6) #23
  %7 = getelementptr inbounds nuw i8, ptr %1, i64 8
  %8 = load i32, ptr %7, align 8
  %9 = lshr i32 %8, 28
  %10 = zext nneg i32 %9 to i64
  %11 = getelementptr inbounds nuw i32, ptr %4, i64 %10
  %12 = load i32, ptr %11, align 4, !tbaa !31
  %.not = icmp ult i32 %8, 268435456
  br i1 %.not, label %._crit_edge, label %.lr.ph

.lr.ph:                                           ; preds = %5, %.lr.ph
  %indvars.iv = phi i64 [ %indvars.iv.next, %.lr.ph ], [ 0, %5 ]
  %13 = getelementptr inbounds nuw [6 x i32], ptr %6, i64 0, i64 %indvars.iv
  %indvars.iv.tr = trunc i64 %indvars.iv to i32
  %14 = shl i32 %indvars.iv.tr, 1
  store i32 %14, ptr %13, align 4, !tbaa !31
  %indvars.iv.next = add nuw nsw i64 %indvars.iv, 1
  %exitcond.not = icmp eq i64 %indvars.iv.next, %10
  br i1 %exitcond.not, label %._crit_edge, label %.lr.ph, !llvm.loop !55

._crit_edge:                                      ; preds = %.lr.ph, %5
  %15 = icmp sgt i32 %12, 0
  br i1 %15, label %.preheader.preheader, label %._crit_edge49

.preheader.preheader:                             ; preds = %._crit_edge
  %16 = getelementptr inbounds nuw i8, ptr %1, i64 16
  %17 = load i64, ptr %16, align 8, !tbaa !56
  %wide.trip.count57 = zext nneg i32 %12 to i64
  br label %.preheader

.preheader:                                       ; preds = %.preheader.preheader, %45
  %18 = phi i32 [ %8, %.preheader.preheader ], [ %23, %45 ]
  %indvars.iv54 = phi i64 [ 0, %.preheader.preheader ], [ %indvars.iv.next55, %45 ]
  %.04347 = phi i64 [ %17, %.preheader.preheader ], [ %65, %45 ]
  br label %19

19:                                               ; preds = %.preheader, %19
  %20 = phi i32 [ %18, %.preheader ], [ %23, %19 ]
  %indvars.iv51 = phi i64 [ 0, %.preheader ], [ %indvars.iv.next52, %19 ]
  %.145 = phi i64 [ %.04347, %.preheader ], [ %39, %19 ]
  %21 = lshr i32 %20, 28
  %22 = and i32 %20, 268435455
  call void @Pf_StoCreateGateAdd(ptr noundef %0, i64 noundef %.145, ptr noundef nonnull %6, i32 noundef %21, i32 noundef %22)
  %23 = load i32, ptr %7, align 8
  %24 = lshr i32 %23, 28
  %25 = zext nneg i32 %24 to i64
  %26 = getelementptr inbounds nuw ptr, ptr %2, i64 %25
  %27 = load ptr, ptr %26, align 8, !tbaa !59
  %28 = getelementptr inbounds nuw i32, ptr %27, i64 %indvars.iv51
  %29 = load i32, ptr %28, align 4, !tbaa !31
  %30 = shl nuw i32 1, %29
  %31 = zext i32 %30 to i64
  %32 = shl i64 %.145, %31
  %33 = sext i32 %29 to i64
  %34 = getelementptr inbounds [6 x i64], ptr @s_Truths6, i64 0, i64 %33
  %35 = load i64, ptr %34, align 8, !tbaa !3
  %36 = and i64 %32, %35
  %37 = and i64 %35, %.145
  %38 = lshr i64 %37, %31
  %39 = or i64 %36, %38
  %40 = getelementptr inbounds i32, ptr %6, i64 %33
  %41 = load i32, ptr %40, align 4, !tbaa !31
  %42 = xor i32 %41, 1
  store i32 %42, ptr %40, align 4, !tbaa !31
  %indvars.iv.next52 = add nuw nsw i64 %indvars.iv51, 1
  %43 = trunc nuw i64 %indvars.iv.next52 to i32
  %.0.highbits = lshr i32 %43, %9
  %44 = icmp eq i32 %.0.highbits, 0
  br i1 %44, label %19, label %45, !llvm.loop !60

45:                                               ; preds = %19
  %46 = getelementptr inbounds nuw ptr, ptr %3, i64 %25
  %47 = load ptr, ptr %46, align 8, !tbaa !59
  %48 = getelementptr inbounds nuw i32, ptr %47, i64 %indvars.iv54
  %49 = load i32, ptr %48, align 4, !tbaa !31
  %50 = sext i32 %49 to i64
  %51 = getelementptr inbounds [5 x [3 x i64]], ptr @s_PMasks, i64 0, i64 %50
  %52 = load i64, ptr %51, align 8, !tbaa !3
  %53 = and i64 %52, %39
  %54 = getelementptr inbounds nuw i8, ptr %51, i64 8
  %55 = load i64, ptr %54, align 8, !tbaa !3
  %56 = and i64 %55, %39
  %57 = shl nuw i32 1, %49
  %58 = zext i32 %57 to i64
  %59 = shl i64 %56, %58
  %60 = or i64 %59, %53
  %61 = getelementptr inbounds nuw i8, ptr %51, i64 16
  %62 = load i64, ptr %61, align 8, !tbaa !3
  %63 = and i64 %62, %39
  %64 = lshr i64 %63, %58
  %65 = or i64 %60, %64
  %66 = getelementptr inbounds i32, ptr %6, i64 %50
  %67 = getelementptr inbounds nuw i8, ptr %66, i64 4
  %68 = load i32, ptr %66, align 4, !tbaa !31
  %69 = load i32, ptr %67, align 4, !tbaa !31
  store i32 %69, ptr %66, align 4, !tbaa !31
  store i32 %68, ptr %67, align 4, !tbaa !31
  %indvars.iv.next55 = add nuw nsw i64 %indvars.iv54, 1
  %exitcond58.not = icmp eq i64 %indvars.iv.next55, %wide.trip.count57
  br i1 %exitcond58.not, label %._crit_edge49, label %.preheader, !llvm.loop !61

._crit_edge49:                                    ; preds = %45, %._crit_edge
  call void @llvm.lifetime.end.p0(i64 24, ptr nonnull %6) #23
  ret void
}